target datalayout = "e-m:e-p270:32:32-p271:32:32-p272:64:64-i64:64-i128:128-f80:128-n8:16:32:64-S128"
target triple = "x86_64-pc-linux-gnu"

; Function Attrs: alwaysinline nounwind willreturn memory(none) uwtable
define internal zeroext i8 @av_clip_uint8_c(i32 noundef %0) #10 {
  %2 = alloca i8, align 1
  %3 = alloca i32, align 4
  store i32 %0, ptr %3, align 4, !tbaa !35
  %4 = load i32, ptr %3, align 4, !tbaa !35
  %5 = and i32 %4, -256
  %6 = icmp ne i32 %5, 0
  br i1 %6, label %7, label %12

7:                                                ; preds = %1
  %8 = load i32, ptr %3, align 4, !tbaa !35
  %9 = xor i32 %8, -1
  %10 = ashr i32 %9, 31
  %11 = trunc i32 %10 to i8
  store i8 %11, ptr %2, align 1
  br label %15

12:                                               ; preds = %1
  %13 = load i32, ptr %3, align 4, !tbaa !35
  %14 = trunc i32 %13 to i8
  store i8 %14, ptr %2, align 1
  br label %15

15:                                               ; preds = %12, %7
  %16 = load i8, ptr %2, align 1
  ret i8 %16
}

; Function Attrs: alwaysinline nounwind uwtable
define internal void @color_correlation(ptr noundef %0, i32 noundef %1, ptr noundef %2, i32 noundef %3, i32 noundef %4, i32 noundef %5, i32 noundef %6, i32 noundef %7, i32 noundef %8) #6 {
  %10 = alloca ptr, align 8
  %11 = alloca i32, align 4
  %12 = alloca ptr, align 8
  %13 = alloca i32, align 4
  %14 = alloca i32, align 4
  %15 = alloca i32, align 4
  %16 = alloca i32, align 4
  %17 = alloca i32, align 4
  %18 = alloca i32, align 4
  %19 = alloca i32, align 4
  %20 = alloca i32, align 4
  %21 = alloca ptr, align 8
  %22 = alloca ptr, align 8
  %23 = alloca ptr, align 8
  %24 = alloca ptr, align 8
  store ptr %0, ptr %10, align 8, !tbaa !93
  store i32 %1, ptr %11, align 4, !tbaa !35
  store ptr %2, ptr %12, align 8, !tbaa !91
  store i32 %3, ptr %13, align 4, !tbaa !35
  store i32 %4, ptr %14, align 4, !tbaa !35
  store i32 %5, ptr %15, align 4, !tbaa !35
  store i32 %6, ptr %16, align 4, !tbaa !35
  store i32 %7, ptr %17, align 4, !tbaa !35
  store i32 %8, ptr %18, align 4, !tbaa !35
  call void @llvm.lifetime.start.p0(i64 4, ptr %19) #11
  call void @llvm.lifetime.start.p0(i64 4, ptr %20) #11
  call void @llvm.lifetime.start.p0(i64 8, ptr %21) #11
  %25 = load ptr, ptr %12, align 8, !tbaa !91
  %26 = getelementptr inbounds ptr, ptr %25, i64 0
  %27 = load ptr, ptr %26, align 8, !tbaa !61
  store ptr %27, ptr %21, align 8, !tbaa !61
  call void @llvm.lifetime.start.p0(i64 8, ptr %22) #11
  %28 = load ptr, ptr %12, align 8, !tbaa !91
  %29 = getelementptr inbounds ptr, ptr %28, i64 1
  %30 = load ptr, ptr %29, align 8, !tbaa !61
  store ptr %30, ptr %22, align 8, !tbaa !61
  call void @llvm.lifetime.start.p0(i64 8, ptr %23) #11
  %31 = load ptr, ptr %12, align 8, !tbaa !91
  %32 = getelementptr inbounds ptr, ptr %31, i64 2
  %33 = load ptr, ptr %32, align 8, !tbaa !61
  store ptr %33, ptr %23, align 8, !tbaa !61
  call void @llvm.lifetime.start.p0(i64 8, ptr %24) #11
  %34 = load ptr, ptr %10, align 8, !tbaa !93
  %35 = getelementptr inbounds ptr, ptr %34, i64 0
  %36 = load ptr, ptr %35, align 8, !tbaa !67
  store ptr %36, ptr %24, align 8, !tbaa !67
  store i32 0, ptr %20, align 4, !tbaa !35
  br label %37

37:                                               ; preds = %138, %9
  %38 = load i32, ptr %20, align 4, !tbaa !35
  %39 = load i32, ptr %15, align 4, !tbaa !35
  %40 = icmp slt i32 %38, %39
  br i1 %40, label %41, label %141

41:                                               ; preds = %37
  store i32 0, ptr %19, align 4, !tbaa !35
  br label %42

42:                                               ; preds = %115, %41
  %43 = load i32, ptr %19, align 4, !tbaa !35
  %44 = load i32, ptr %14, align 4, !tbaa !35
  %45 = icmp slt i32 %43, %44
  br i1 %45, label %46, label %118

46:                                               ; preds = %42
  %47 = load ptr, ptr %21, align 8, !tbaa !61
  %48 = load i32, ptr %19, align 4, !tbaa !35
  %49 = sext i32 %48 to i64
  %50 = getelementptr inbounds float, ptr %47, i64 %49
  %51 = load float, ptr %50, align 4, !tbaa !81
  %52 = load ptr, ptr %22, align 8, !tbaa !61
  %53 = load i32, ptr %19, align 4, !tbaa !35
  %54 = sext i32 %53 to i64
  %55 = getelementptr inbounds float, ptr %52, i64 %54
  %56 = load float, ptr %55, align 4, !tbaa !81
  %57 = fmul nsz float %56, 0x3FE6A09E60000000
  %58 = call nsz float @llvm.fmuladd.f32(float %51, float 0x3FE279A740000000, float %57)
  %59 = load ptr, ptr %23, align 8, !tbaa !61
  %60 = load i32, ptr %19, align 4, !tbaa !35
  %61 = sext i32 %60 to i64
  %62 = getelementptr inbounds float, ptr %59, i64 %61
  %63 = load float, ptr %62, align 4, !tbaa !81
  %64 = call nsz float @llvm.fmuladd.f32(float %63, float 0x3FDA20BD80000000, float %58)
  %65 = fptosi float %64 to i32
  %66 = call zeroext i8 @av_clip_uint8_c(i32 noundef %65) #14
  %67 = load ptr, ptr %24, align 8, !tbaa !67
  %68 = load i32, ptr %16, align 4, !tbaa !35
  %69 = sext i32 %68 to i64
  %70 = getelementptr inbounds i8, ptr %67, i64 %69
  store i8 %66, ptr %70, align 1, !tbaa !95
  %71 = load ptr, ptr %21, align 8, !tbaa !61
  %72 = load i32, ptr %19, align 4, !tbaa !35
  %73 = sext i32 %72 to i64
  %74 = getelementptr inbounds float, ptr %71, i64 %73
  %75 = load float, ptr %74, align 4, !tbaa !81
  %76 = load ptr, ptr %23, align 8, !tbaa !61
  %77 = load i32, ptr %19, align 4, !tbaa !35
  %78 = sext i32 %77 to i64
  %79 = getelementptr inbounds float, ptr %76, i64 %78
  %80 = load float, ptr %79, align 4, !tbaa !81
  %81 = fmul nsz float %80, 0xBFEA20BD80000000
  %82 = call nsz float @llvm.fmuladd.f32(float %75, float 0x3FE279A740000000, float %81)
  %83 = fptosi float %82 to i32
  %84 = call zeroext i8 @av_clip_uint8_c(i32 noundef %83) #14
  %85 = load ptr, ptr %24, align 8, !tbaa !67
  %86 = load i32, ptr %17, align 4, !tbaa !35
  %87 = sext i32 %86 to i64
  %88 = getelementptr inbounds i8, ptr %85, i64 %87
  store i8 %84, ptr %88, align 1, !tbaa !95
  %89 = load ptr, ptr %21, align 8, !tbaa !61
  %90 = load i32, ptr %19, align 4, !tbaa !35
  %91 = sext i32 %90 to i64
  %92 = getelementptr inbounds float, ptr %89, i64 %91
  %93 = load float, ptr %92, align 4, !tbaa !81
  %94 = load ptr, ptr %22, align 8, !tbaa !61
  %95 = load i32, ptr %19, align 4, !tbaa !35
  %96 = sext i32 %95 to i64
  %97 = getelementptr inbounds float, ptr %94, i64 %96
  %98 = load float, ptr %97, align 4, !tbaa !81
  %99 = fmul nsz float %98, 0xBFE6A09E60000000
  %100 = call nsz float @llvm.fmuladd.f32(float %93, float 0x3FE279A740000000, float %99)
  %101 = load ptr, ptr %23, align 8, !tbaa !61
  %102 = load i32, ptr %19, align 4, !tbaa !35
  %103 = sext i32 %102 to i64
  %104 = getelementptr inbounds float, ptr %101, i64 %103
  %105 = load float, ptr %104, align 4, !tbaa !81
  %106 = call nsz float @llvm.fmuladd.f32(float %105, float 0x3FDA20BD80000000, float %100)
  %107 = fptosi float %106 to i32
  %108 = call zeroext i8 @av_clip_uint8_c(i32 noundef %107) #14
  %109 = load ptr, ptr %24, align 8, !tbaa !67
  %110 = load i32, ptr %18, align 4, !tbaa !35
  %111 = sext i32 %110 to i64
  %112 = getelementptr inbounds i8, ptr %109, i64 %111
  store i8 %108, ptr %112, align 1, !tbaa !95
  %113 = load ptr, ptr %24, align 8, !tbaa !67
  %114 = getelementptr inbounds i8, ptr %113, i64 3
  store ptr %114, ptr %24, align 8, !tbaa !67
  br label %115

115:                                              ; preds = %46
  %116 = load i32, ptr %19, align 4, !tbaa !35
  %117 = add nsw i32 %116, 1
  store i32 %117, ptr %19, align 4, !tbaa !35
  br label %42, !llvm.loop !102

118:                                              ; preds = %42
  %119 = load i32, ptr %11, align 4, !tbaa !35
  %120 = load i32, ptr %14, align 4, !tbaa !35
  %121 = mul nsw i32 %120, 3
  %122 = sub nsw i32 %119, %121
  %123 = load ptr, ptr %24, align 8, !tbaa !67
  %124 = sext i32 %122 to i64
  %125 = getelementptr inbounds i8, ptr %123, i64 %124
  store ptr %125, ptr %24, align 8, !tbaa !67
  %126 = load i32, ptr %13, align 4, !tbaa !35
  %127 = load ptr, ptr %21, align 8, !tbaa !61
  %128 = sext i32 %126 to i64
  %129 = getelementptr inbounds float, ptr %127, i64 %128
  store ptr %129, ptr %21, align 8, !tbaa !61
  %130 = load i32, ptr %13, align 4, !tbaa !35
  %131 = load ptr, ptr %22, align 8, !tbaa !61
  %132 = sext i32 %130 to i64
  %133 = getelementptr inbounds float, ptr %131, i64 %132
  store ptr %133, ptr %22, align 8, !tbaa !61
  %134 = load i32, ptr %13, align 4, !tbaa !35
  %135 = load ptr, ptr %23, align 8, !tbaa !61
  %136 = sext i32 %134 to i64
  %137 = getelementptr inbounds float, ptr %135, i64 %136
  store ptr %137, ptr %23, align 8, !tbaa !61
  br label %138

138:                                              ; preds = %118
  %139 = load i32, ptr %20, align 4, !tbaa !35
  %140 = add nsw i32 %139, 1
  store i32 %140, ptr %20, align 4, !tbaa !35
  br label %37, !llvm.loop !103

141:                                              ; preds = %37
  call void @llvm.lifetime.end.p0(i64 8, ptr %24) #11
  call void @llvm.lifetime.end.p0(i64 8, ptr %23) #11
  call void @llvm.lifetime.end.p0(i64 8, ptr %22) #11
  call void @llvm.lifetime.end.p0(i64 8, ptr %21) #11
  call void @llvm.lifetime.end.p0(i64 4, ptr %20) #11
  call void @llvm.lifetime.end.p0(i64 4, ptr %19) #11
  ret void
}

; Function Attrs: nounwind uwtable
define internal void @color_correlation_bgr(ptr noundef %0, i32 noundef %1, ptr noundef %2, i32 noundef %3, i32 noundef %4, i32 noundef %5) #1 {
  %7 = alloca ptr, align 8
  %8 = alloca i32, align 4
  %9 = alloca ptr, align 8
  %10 = alloca i32, align 4
  %11 = alloca i32, align 4
  %12 = alloca i32, align 4
  store ptr %0, ptr %7, align 8, !tbaa !93
  store i32 %1, ptr %8, align 4, !tbaa !35
  store ptr %2, ptr %9, align 8, !tbaa !91
  store i32 %3, ptr %10, align 4, !tbaa !35
  store i32 %4, ptr %11, align 4, !tbaa !35
  store i32 %5, ptr %12, align 4, !tbaa !35
  %13 = load ptr, ptr %7, align 8, !tbaa !93
  %14 = load i32, ptr %8, align 4, !tbaa !35
  %15 = load ptr, ptr %9, align 8, !tbaa !91
  %16 = load i32, ptr %10, align 4, !tbaa !35
  %17 = load i32, ptr %11, align 4, !tbaa !35
  %18 = load i32, ptr %12, align 4, !tbaa !35
  call void @color_correlation(ptr noundef %13, i32 noundef %14, ptr noundef %15, i32 noundef %16, i32 noundef %17, i32 noundef %18, i32 noundef 2, i32 noundef 1, i32 noundef 0)
  ret void
}